Certificate:
    Data:
        Version: 3 (0x2)
        Serial Number: 271 (0x10f)
        Signature Algorithm: sha256WithRSAEncryption
        Issuer: CN=www.dbdsecurity.com/emailAddress=info@dbdsecurity.com, O=DBDSec, C=Tr, ST=Turkiye, L=Kayseri
        Validity
            Not Before: Sep  8 20:56:09 2021 GMT
            Not After : Sep  8 20:56:09 2022 GMT
        Subject: C=Tr, ST=Turkiye, O=DBDSec, CN=www.dbdsecurity.com/emailAddress=info@dbdsecurity.com
        Subject Public Key Info:
            Public Key Algorithm: rsaEncryption
                RSA Public-Key: (2048 bit)
                Modulus:
                    00:ab:fb:ea:04:1e:1d:5c:76:19:c9:75:1f:60:ed:
                    87:51:9d:1d:97:05:2d:09:7d:87:5e:a2:fe:a8:7c:
                    06:ba:f8:10:2f:91:aa:01:06:64:a8:32:9e:8d:dd:
                    2c:5e:3d:e7:52:6a:35:a5:99:f9:12:fe:f9:85:3a:
                    17:2c:2b:9c:ea:73:89:49:17:7b:88:b9:b6:50:0d:
                    b2:18:43:50:a6:de:94:ba:a8:63:a8:02:4c:6e:83:
                    32:9b:42:74:15:16:01:b1:47:cf:d8:59:f2:d7:75:
                    01:d2:94:88:26:e0:23:69:dd:68:6e:9a:f7:26:e8:
                    f6:66:0e:3c:da:25:b3:b3:95:c3:bb:2c:25:87:1e:
                    8d:30:37:6a:f2:1e:fe:39:af:85:d1:a4:6d:e5:10:
                    17:c5:80:e8:00:13:bc:a5:48:45:45:ee:fb:92:11:
                    8e:c4:12:16:c5:0a:54:0f:79:94:a2:75:16:1d:2c:
                    c4:9d:24:5a:d0:77:d1:8d:07:05:f2:9a:3f:00:a1:
                    4a:a8:22:c7:ea:38:8c:1a:23:01:86:f6:d3:b1:70:
                    24:c2:a0:00:03:75:9c:74:a5:b5:73:9d:e5:3f:8b:
                    80:55:46:eb:89:f1:fa:ab:2c:99:c9:96:96:be:0c:
                    5c:11:87:51:d1:d7:f9:93:0f:9a:02:26:f5:8f:c0:
                    fa:25
                Exponent: 65537 (0x10001)
        X509v3 extensions:
            X509v3 Basic Constraints: 
                CA:FALSE
            Netscape Comment: 
                OpenSSL Generated Certificate
            X509v3 Subject Key Identifier: 
                9E:F8:D7:62:40:3E:D1:D5:F9:47:BE:4C:86:20:EE:F7:24:8B:B5:43
            X509v3 Authority Key Identifier: 
                keyid:07:96:00:46:68:C4:E0:D4:DA:56:F9:BC:86:09:05:AC:E8:7D:D6:F0

            X509v3 Extended Key Usage: critical
                Time Stamping
    Signature Algorithm: sha256WithRSAEncryption
         cb:7e:48:5f:75:7b:f9:d1:38:4e:f0:23:79:4b:bb:fd:0a:fd:
         a1:45:23:21:01:16:77:fc:f5:1b:c3:29:9b:d2:71:23:fd:52:
         70:a8:96:c6:93:4d:ca:0c:23:93:ca:53:ae:ea:9d:29:e2:1b:
         b1:cb:9e:b3:81:dc:d4:8c:fc:11:d4:a5:41:43:07:9e:23:c8:
         7c:74:23:36:8d:64:2b:d8:b8:02:d2:93:e4:63:cf:04:ef:0a:
         00:d5:50:8b:10:51:79:24:d8:0b:71:b1:8c:43:b4:22:d1:04:
         0e:78:a8:80:6a:f0:20:27:ff:20:cf:09:fa:16:04:f7:ad:d3:
         45:cf:29:6a:10:c2:d4:fd:a1:c4:71:17:ba:89:33:8b:fd:d8:
         95:25:b0:db:e9:f1:97:d2:c4:29:01:55:7b:90:ba:73:63:98:
         20:fb:12:4e:fe:30:33:9c:b9:57:2d:a8:52:83:ec:88:89:0a:
         b2:9f:68:f5:31:90:cd:76:71:a2:37:ab:fa:b1:f8:78:1a:95:
         a2:3a:c3:a8:06:a0:e5:86:0d:0d:5a:c4:7d:95:18:c0:be:c4:
         75:34:45:19:a0:f6:95:60:9f:48:8c:3b:47:36:3f:1a:3b:8a:
         bc:41:8b:54:ea:1e:87:3b:7d:be:a0:87:6c:8f:52:c5:f3:3c:
         02:5f:99:fa
-----BEGIN CERTIFICATE-----
MIIECjCCAvKgAwIBAgICAQ8wDQYJKoZIhvcNAQELBQAwgYUxHDAaBgNVBAMME3d3
dy5kYmRzZWN1cml0eS5jb20xIzAhBgkqhkiG9w0BCQEWFGluZm9AZGJkc2VjdXJp
dHkuY29tMQ8wDQYDVQQKDAZEQkRTZWMxCzAJBgNVBAYTAlRyMRAwDgYDVQQIDAdU
dXJraXllMRAwDgYDVQQHDAdLYXlzZXJpMB4XDTIxMDkwODIwNTYwOVoXDTIyMDkw
ODIwNTYwOVowczELMAkGA1UEBhMCVHIxEDAOBgNVBAgMB1R1cmtpeWUxDzANBgNV
BAoMBkRCRFNlYzEcMBoGA1UEAwwTd3d3LmRiZHNlY3VyaXR5LmNvbTEjMCEGCSqG
SIb3DQEJARYUaW5mb0BkYmRzZWN1cml0eS5jb20wggEiMA0GCSqGSIb3DQEBAQUA
A4IBDwAwggEKAoIBAQCr++oEHh1cdhnJdR9g7YdRnR2XBS0JfYdeov6ofAa6+BAv
kaoBBmSoMp6N3SxePedSajWlmfkS/vmFOhcsK5zqc4lJF3uIubZQDbIYQ1Cm3pS6
qGOoAkxugzKbQnQVFgGxR8/YWfLXdQHSlIgm4CNp3Whumvcm6PZmDjzaJbOzlcO7
LCWHHo0wN2ryHv45r4XRpG3lEBfFgOgAE7ylSEVF7vuSEY7EEhbFClQPeZSidRYd
LMSdJFrQd9GNBwXymj8AoUqoIsfqOIwaIwGG9tOxcCTCoAADdZx0pbVzneU/i4BV
RuuJ8fqrLJnJlpa+DFwRh1HR1/mTD5oCJvWPwPolAgMBAAGjgZQwgZEwCQYDVR0T
BAIwADAsBglghkgBhvhCAQ0EHxYdT3BlblNTTCBHZW5lcmF0ZWQgQ2VydGlmaWNh
dGUwHQYDVR0OBBYEFJ7412JAPtHV+Ue+TIYg7vcki7VDMB8GA1UdIwQYMBaAFAeW
AEZoxODU2lb5vIYJBazofdbwMBYGA1UdJQEB/wQMMAoGCCsGAQUFBwMIMA0GCSqG
SIb3DQEBCwUAA4IBAQDLfkhfdXv50ThO8CN5S7v9Cv2hRSMhARZ3/PUbwymb0nEj
/VJwqJbGk03KDCOTylOu6p0p4huxy56zgdzUjPwR1KVBQweeI8h8dCM2jWQr2LgC
0pPkY88E7woA1VCLEFF5JNgLcbGMQ7Qi0QQOeKiAavAgJ/8gzwn6FgT3rdNFzylq
EMLU/aHEcRe6iTOL/diVJbDb6fGX0sQpAVV7kLpzY5gg+xJO/jAznLlXLahSg+yI
iQqyn2j1MZDNdnGiN6v6sfh4GpWiOsOoBqDlhg0NWsR9lRjAvsR1NEUZoPaVYJ9I
jDtHNj8aO4q8QYtU6h6HO32+oIdsj1LF8zwCX5n6
-----END CERTIFICATE-----
